; Function Attrs: mustprogress uwtable
define internal fastcc noundef zeroext i1 @_ZN5zxing6qrcode12_GLOBAL__N_115BestComparator2clENS_3RefINS0_13FinderPatternEEES5_(ptr nocapture noundef readonly %0, ptr nocapture noundef readonly %1) unnamed_addr #0 align 2 {
  %3 = load ptr, ptr %0, align 8
  %4 = tail call noundef i32 @_ZNK5zxing6qrcode13FinderPattern8getCountEv(ptr noundef nonnull align 8 dereferenceable(40) %3)
  %5 = load ptr, ptr %1, align 8
  %6 = tail call noundef i32 @_ZNK5zxing6qrcode13FinderPattern8getCountEv(ptr noundef nonnull align 8 dereferenceable(40) %5)
  %.not = icmp eq i32 %4, %6
  %7 = load ptr, ptr %0, align 8
  br i1 %.not, label %13, label %8

8:                                                ; preds = %2
  %9 = tail call noundef i32 @_ZNK5zxing6qrcode13FinderPattern8getCountEv(ptr noundef nonnull align 8 dereferenceable(40) %7)
  %10 = load ptr, ptr %1, align 8
  %11 = tail call noundef i32 @_ZNK5zxing6qrcode13FinderPattern8getCountEv(ptr noundef nonnull align 8 dereferenceable(40) %10)
  %12 = icmp sgt i32 %9, %11
  br label %32

13:                                               ; preds = %2
  %14 = getelementptr inbounds i8, ptr %7, i64 32
  %15 = load i32, ptr %14, align 8
  %.not11 = icmp ne i32 %15, 0
  %spec.select = zext i1 %.not11 to i32
  %16 = getelementptr inbounds i8, ptr %7, i64 36
  %17 = load i32, ptr %16, align 4
  %.not12 = icmp eq i32 %17, 3
  %18 = select i1 %.not11, i32 2, i32 1
  %.19 = select i1 %.not12, i32 %spec.select, i32 %18
  %19 = load ptr, ptr %1, align 8
  %20 = getelementptr inbounds i8, ptr %19, i64 32
  %21 = load i32, ptr %20, align 8
  %.not13 = icmp ne i32 %21, 0
  %.0 = zext i1 %.not13 to i32
  %22 = getelementptr inbounds i8, ptr %19, i64 36
  %23 = load i32, ptr %22, align 4
  %.not14 = icmp eq i32 %23, 3
  %24 = select i1 %.not13, i32 2, i32 1
  %.1 = select i1 %.not14, i32 %.0, i32 %24
  %.not15 = icmp eq i32 %.19, %.1
  br i1 %.not15, label %27, label %25

25:                                               ; preds = %13
  %26 = icmp ult i32 %.19, %.1
  br label %32

27:                                               ; preds = %13
  %28 = tail call noundef float @_ZNK5zxing6qrcode13FinderPattern22getEstimatedModuleSizeEv(ptr noundef nonnull align 8 dereferenceable(40) %7)
  %29 = load ptr, ptr %1, align 8
  %30 = tail call noundef float @_ZNK5zxing6qrcode13FinderPattern22getEstimatedModuleSizeEv(ptr noundef nonnull align 8 dereferenceable(40) %29)
  %31 = fcmp ogt float %28, %30
  br label %32

32:                                               ; preds = %27, %25, %8
  %.010 = phi i1 [ %12, %8 ], [ %26, %25 ], [ %31, %27 ]
  ret i1 %.010
}